target datalayout = "e-m:e-p270:32:32-p271:32:32-p272:64:64-i64:64-i128:128-f80:128-n8:16:32:64-S128"
target triple = "x86_64-pc-linux-gnu"

%"class.std::__cxx11::basic_string" = type { %"struct.std::__cxx11::basic_string<char>::_Alloc_hider", i64, %union.anon }
%"struct.std::__cxx11::basic_string<char>::_Alloc_hider" = type { ptr }
%union.anon = type { i64, [8 x i8] }
%"struct.(anonymous namespace)::Slice" = type { i32, i32, i32 }

@.str.67 = private unnamed_addr constant [7 x i8] c"-slice\00", align 1
@.str.68 = private unnamed_addr constant [12 x i8] c"-rtlilslice\00", align 1
@.str.111 = private unnamed_addr constant [6 x i8] c"%s %d\00", align 1
@.str.112 = private unnamed_addr constant [9 x i8] c"%s %d:%d\00", align 1

; Function Attrs: mustprogress uwtable
define internal void @_ZNK12_GLOBAL__N_15Slice9to_stringB5cxx11Ev(ptr dead_on_unwind noalias writable sret(%"class.std::__cxx11::basic_string") align 8 %0, ptr noundef nonnull align 4 dereferenceable(12) %1) #4 align 2 {
  %3 = alloca ptr, align 8
  %4 = alloca ptr, align 8
  %5 = alloca ptr, align 8
  %6 = alloca i32, align 4
  store ptr %0, ptr %3, align 8
  store ptr %1, ptr %4, align 8, !tbaa !161
  %7 = load ptr, ptr %4, align 8
  call void @llvm.lifetime.start.p0(i64 8, ptr %5) #3
  %8 = getelementptr inbounds nuw %"struct.(anonymous namespace)::Slice", ptr %7, i32 0, i32 0
  %9 = load i32, ptr %8, align 4, !tbaa !162
  %10 = icmp eq i32 %9, 0
  %11 = select i1 %10, ptr @.str.68, ptr @.str.67
  store ptr %11, ptr %5, align 8, !tbaa !17
  %12 = getelementptr inbounds nuw %"struct.(anonymous namespace)::Slice", ptr %7, i32 0, i32 1
  %13 = load i32, ptr %12, align 4, !tbaa !164
  %14 = getelementptr inbounds nuw %"struct.(anonymous namespace)::Slice", ptr %7, i32 0, i32 2
  %15 = load i32, ptr %14, align 4, !tbaa !165
  %16 = icmp eq i32 %13, %15
  br i1 %16, label %17, label %21

17:                                               ; preds = %2
  %18 = load ptr, ptr %5, align 8, !tbaa !17
  %19 = getelementptr inbounds nuw %"struct.(anonymous namespace)::Slice", ptr %7, i32 0, i32 1
  %20 = load i32, ptr %19, align 4, !tbaa !164
  call void (ptr, ptr, ...) @_ZN5Yosys7stringfB5cxx11EPKcz(ptr dead_on_unwind writable sret(%"class.std::__cxx11::basic_string") align 8 %0, ptr noundef @.str.111, ptr noundef %18, i32 noundef %20)
  store i32 1, ptr %6, align 4
  br label %27

21:                                               ; preds = %2
  %22 = load ptr, ptr %5, align 8, !tbaa !17
  %23 = getelementptr inbounds nuw %"struct.(anonymous namespace)::Slice", ptr %7, i32 0, i32 1
  %24 = load i32, ptr %23, align 4, !tbaa !164
  %25 = getelementptr inbounds nuw %"struct.(anonymous namespace)::Slice", ptr %7, i32 0, i32 2
  %26 = load i32, ptr %25, align 4, !tbaa !165
  call void (ptr, ptr, ...) @_ZN5Yosys7stringfB5cxx11EPKcz(ptr dead_on_unwind writable sret(%"class.std::__cxx11::basic_string") align 8 %0, ptr noundef @.str.112, ptr noundef %22, i32 noundef %24, i32 noundef %26)
  store i32 1, ptr %6, align 4
  br label %27

27:                                               ; preds = %21, %17
  call void @llvm.lifetime.end.p0(i64 8, ptr %5) #3
  ret void
}