; Function Attrs: mustprogress uwtable
define internal fastcc void @_ZNK12_GLOBAL__N_15Slice9to_stringB5cxx11Ev(ptr dead_on_unwind noalias nonnull writable align 8 %0, ptr noundef nonnull readonly align 4 captures(none) dereferenceable(12) %1) unnamed_addr #5 align 2 {
  %3 = load i32, ptr %1, align 4, !tbaa !251
  %4 = icmp eq i32 %3, 0
  %5 = select i1 %4, ptr @.str.68, ptr @.str.67
  %6 = getelementptr inbounds nuw i8, ptr %1, i64 4
  %7 = load i32, ptr %6, align 4, !tbaa !259
  %8 = getelementptr inbounds nuw i8, ptr %1, i64 8
  %9 = load i32, ptr %8, align 4, !tbaa !260
  %10 = icmp eq i32 %7, %9
  br i1 %10, label %11, label %12

11:                                               ; preds = %2
  tail call void (ptr, ptr, ...) @_ZN5Yosys7stringfB5cxx11EPKcz(ptr dead_on_unwind nonnull writable sret(%"class.std::__cxx11::basic_string") align 8 %0, ptr noundef nonnull @.str.111, ptr noundef nonnull %5, i32 noundef %7)
  br label %13

12:                                               ; preds = %2
  tail call void (ptr, ptr, ...) @_ZN5Yosys7stringfB5cxx11EPKcz(ptr dead_on_unwind nonnull writable sret(%"class.std::__cxx11::basic_string") align 8 %0, ptr noundef nonnull @.str.112, ptr noundef nonnull %5, i32 noundef %7, i32 noundef %9)
  br label %13

13:                                               ; preds = %12, %11
  ret void
}